target datalayout = "e-m:e-p270:32:32-p271:32:32-p272:64:64-i64:64-i128:128-f80:128-n8:16:32:64-S128"
target triple = "x86_64-pc-linux-gnu"

%struct.DdManager = type { %struct.DdNode, ptr, ptr, ptr, ptr, ptr, ptr, ptr, i32, i32, double, double, double, i32, i32, i32, i32, i32, i32, ptr, ptr, %struct.DdSubtable, i32, i32, i32, i32, i32, i32, i32, double, i32, i32, i32, ptr, i64, double, i32, ptr, ptr, ptr, ptr, ptr, ptr, ptr, i32, ptr, ptr, ptr, ptr, ptr, ptr, i32, i32, i32, double, i32, i32, i32, i32, double, double, i32, i32, i32, i32, i32, i32, i32, i32, i32, ptr, ptr, i32, i32, i32, i32, i32, i32, ptr, ptr, ptr, ptr, ptr, ptr, ptr, ptr, i32, i64, i64, i64, i32, i64, i64, double, double, double, double, double, double, i32, ptr, ptr, i64 }
%struct.DdNode = type { i32, i32, ptr, %union.anon, i64 }
%union.anon = type { %struct.DdChildren }
%struct.DdChildren = type { ptr, ptr }
%struct.DdSubtable = type { ptr, i32, i32, i32, i32, i32, i32, i32, i32, i32, i32, i32 }
%struct.Aig_Obj_t_ = type { %union.anon.0, ptr, ptr, i64, i32, i32, %union.anon.1 }
%union.anon.0 = type { ptr }
%union.anon.1 = type { ptr }
%struct.Aig_Man_t_ = type { ptr, ptr, ptr, ptr, ptr, ptr, ptr, %struct.Aig_Obj_t_, i32, i32, i32, i32, i32, i32, [7 x i32], i32, ptr, i32, ptr, i32, ptr, i32, i32, i32, ptr, i32, i32, i32, i32, i32, ptr, ptr, i32, ptr, ptr, i32, ptr, ptr, i32, i32, i32, ptr, ptr, ptr, ptr, ptr, ptr, ptr, ptr, ptr, ptr, ptr, ptr, ptr, ptr, i32, ptr, ptr, ptr, ptr, i32, i64, i64, i64, ptr, ptr }
%struct.Vec_Ptr_t_ = type { i32, i32, ptr }
%struct.Llb_Man_t_ = type { ptr, ptr, ptr, ptr, ptr, ptr, ptr, ptr, ptr, ptr, ptr, ptr, ptr, ptr, ptr, ptr, ptr }
%struct.Vec_Int_t_ = type { i32, i32, ptr }

; Function Attrs: nounwind uwtable
define internal i32 @Vec_IntEntry(ptr noundef %0, i32 noundef %1) #0 {
  %3 = alloca ptr, align 8
  %4 = alloca i32, align 4
  store ptr %0, ptr %3, align 8
  store i32 %1, ptr %4, align 4
  %5 = load ptr, ptr %3, align 8
  %6 = getelementptr inbounds %struct.Vec_Int_t_, ptr %5, i32 0, i32 2
  %7 = load ptr, ptr %6, align 8
  %8 = load i32, ptr %4, align 4
  %9 = sext i32 %8 to i64
  %10 = getelementptr inbounds i32, ptr %7, i64 %9
  %11 = load i32, ptr %10, align 4
  ret i32 %11
}

; Function Attrs: nounwind uwtable
define internal i32 @Aig_ObjId(ptr noundef %0) #0 {
  %2 = alloca ptr, align 8
  store ptr %0, ptr %2, align 8
  %3 = load ptr, ptr %2, align 8
  %4 = getelementptr inbounds %struct.Aig_Obj_t_, ptr %3, i32 0, i32 5
  %5 = load i32, ptr %4, align 4
  ret i32 %5
}

; Function Attrs: nounwind uwtable
define internal ptr @Vec_PtrEntry(ptr noundef %0, i32 noundef %1) #0 {
  %3 = alloca ptr, align 8
  %4 = alloca i32, align 4
  store ptr %0, ptr %3, align 8
  store i32 %1, ptr %4, align 4
  %5 = load ptr, ptr %3, align 8
  %6 = getelementptr inbounds %struct.Vec_Ptr_t_, ptr %5, i32 0, i32 2
  %7 = load ptr, ptr %6, align 8
  %8 = load i32, ptr %4, align 4
  %9 = sext i32 %8 to i64
  %10 = getelementptr inbounds ptr, ptr %7, i64 %9
  %11 = load ptr, ptr %10, align 8
  ret ptr %11
}

; Function Attrs: nounwind uwtable
define internal i32 @Saig_ManPiNum(ptr noundef %0) #0 {
  %2 = alloca ptr, align 8
  store ptr %0, ptr %2, align 8
  %3 = load ptr, ptr %2, align 8
  %4 = getelementptr inbounds %struct.Aig_Man_t_, ptr %3, i32 0, i32 9
  %5 = load i32, ptr %4, align 4
  ret i32 %5
}

; Function Attrs: nounwind uwtable
define internal i32 @Saig_ManRegNum(ptr noundef %0) #0 {
  %2 = alloca ptr, align 8
  store ptr %0, ptr %2, align 8
  %3 = load ptr, ptr %2, align 8
  %4 = getelementptr inbounds %struct.Aig_Man_t_, ptr %3, i32 0, i32 8
  %5 = load i32, ptr %4, align 8
  ret i32 %5
}

; Function Attrs: nounwind uwtable
define ptr @Llb_ManComputeInitState(ptr noundef %0, ptr noundef %1) #0 {
  %3 = alloca ptr, align 8
  %4 = alloca ptr, align 8
  %5 = alloca ptr, align 8
  %6 = alloca ptr, align 8
  %7 = alloca ptr, align 8
  %8 = alloca ptr, align 8
  %9 = alloca i32, align 4
  %10 = alloca i32, align 4
  %11 = alloca i64, align 8
  store ptr %0, ptr %3, align 8
  store ptr %1, ptr %4, align 8
  %12 = load ptr, ptr %4, align 8
  %13 = getelementptr inbounds %struct.DdManager, ptr %12, i32 0, i32 102
  %14 = load i64, ptr %13, align 8
  store i64 %14, ptr %11, align 8
  %15 = load ptr, ptr %4, align 8
  %16 = getelementptr inbounds %struct.DdManager, ptr %15, i32 0, i32 102
  store i64 0, ptr %16, align 8
  %17 = load ptr, ptr %4, align 8
  %18 = call ptr @Cudd_ReadOne(ptr noundef %17)
  store ptr %18, ptr %6, align 8
  %19 = load ptr, ptr %6, align 8
  call void @Cudd_Ref(ptr noundef %19)
  store i32 0, ptr %9, align 4
  br label %20

20:                                               ; preds = %72, %2
  %21 = load i32, ptr %9, align 4
  %22 = load ptr, ptr %3, align 8
  %23 = getelementptr inbounds %struct.Llb_Man_t_, ptr %22, i32 0, i32 2
  %24 = load ptr, ptr %23, align 8
  %25 = call i32 @Saig_ManRegNum(ptr noundef %24)
  %26 = icmp slt i32 %21, %25
  br i1 %26, label %27, label %40

27:                                               ; preds = %20
  %28 = load ptr, ptr %3, align 8
  %29 = getelementptr inbounds %struct.Llb_Man_t_, ptr %28, i32 0, i32 2
  %30 = load ptr, ptr %29, align 8
  %31 = getelementptr inbounds %struct.Aig_Man_t_, ptr %30, i32 0, i32 2
  %32 = load ptr, ptr %31, align 8
  %33 = load i32, ptr %9, align 4
  %34 = load ptr, ptr %3, align 8
  %35 = getelementptr inbounds %struct.Llb_Man_t_, ptr %34, i32 0, i32 2
  %36 = load ptr, ptr %35, align 8
  %37 = call i32 @Saig_ManPiNum(ptr noundef %36)
  %38 = add nsw i32 %33, %37
  %39 = call ptr @Vec_PtrEntry(ptr noundef %32, i32 noundef %38)
  store ptr %39, ptr %5, align 8
  br label %40

40:                                               ; preds = %27, %20
  %41 = phi i1 [ false, %20 ], [ true, %27 ]
  br i1 %41, label %42, label %75

42:                                               ; preds = %40
  %43 = load ptr, ptr %4, align 8
  %44 = load ptr, ptr %3, align 8
  %45 = getelementptr inbounds %struct.Llb_Man_t_, ptr %44, i32 0, i32 4
  %46 = load ptr, ptr %45, align 8
  %47 = icmp eq ptr %43, %46
  br i1 %47, label %48, label %50

48:                                               ; preds = %42
  %49 = load i32, ptr %9, align 4
  br label %57

50:                                               ; preds = %42
  %51 = load ptr, ptr %3, align 8
  %52 = getelementptr inbounds %struct.Llb_Man_t_, ptr %51, i32 0, i32 6
  %53 = load ptr, ptr %52, align 8
  %54 = load ptr, ptr %5, align 8
  %55 = call i32 @Aig_ObjId(ptr noundef %54)
  %56 = call i32 @Vec_IntEntry(ptr noundef %53, i32 noundef %55)
  br label %57

57:                                               ; preds = %50, %48
  %58 = phi i32 [ %49, %48 ], [ %56, %50 ]
  store i32 %58, ptr %10, align 4
  %59 = load ptr, ptr %4, align 8
  %60 = load i32, ptr %10, align 4
  %61 = call ptr @Cudd_bddIthVar(ptr noundef %59, i32 noundef %60)
  store ptr %61, ptr %7, align 8
  %62 = load ptr, ptr %4, align 8
  %63 = load ptr, ptr %6, align 8
  store ptr %63, ptr %8, align 8
  %64 = load ptr, ptr %7, align 8
  %65 = ptrtoint ptr %64 to i64
  %66 = xor i64 %65, 1
  %67 = inttoptr i64 %66 to ptr
  %68 = call ptr @Cudd_bddAnd(ptr noundef %62, ptr noundef %63, ptr noundef %67)
  store ptr %68, ptr %6, align 8
  %69 = load ptr, ptr %6, align 8
  call void @Cudd_Ref(ptr noundef %69)
  %70 = load ptr, ptr %4, align 8
  %71 = load ptr, ptr %8, align 8
  call void @Cudd_RecursiveDeref(ptr noundef %70, ptr noundef %71)
  br label %72

72:                                               ; preds = %57
  %73 = load i32, ptr %9, align 4
  %74 = add nsw i32 %73, 1
  store i32 %74, ptr %9, align 4
  br label %20, !llvm.loop !19

75:                                               ; preds = %40
  %76 = load ptr, ptr %6, align 8
  call void @Cudd_Deref(ptr noundef %76)
  %77 = load i64, ptr %11, align 8
  %78 = load ptr, ptr %4, align 8
  %79 = getelementptr inbounds %struct.DdManager, ptr %78, i32 0, i32 102
  store i64 %77, ptr %79, align 8
  %80 = load ptr, ptr %6, align 8
  ret ptr %80
}