; Function Attrs: nounwind uwtable
define noundef ptr @Llb_ManComputeInitState(ptr noundef readonly captures(none) %0, ptr noundef %1) local_unnamed_addr #0 {
  %3 = getelementptr inbounds nuw i8, ptr %1, i64 752
  %4 = load i64, ptr %3, align 8
  store i64 0, ptr %3, align 8
  %5 = tail call ptr @Cudd_ReadOne(ptr noundef %1) #12
  tail call void @Cudd_Ref(ptr noundef %5) #12
  %6 = getelementptr inbounds nuw i8, ptr %0, i64 16
  %7 = load ptr, ptr %6, align 8
  %8 = getelementptr i8, ptr %7, i64 104
  %.val3031 = load i32, ptr %8, align 8
  %9 = icmp sgt i32 %.val3031, 0
  br i1 %9, label %.lr.ph, label %.critedge

.lr.ph:                                           ; preds = %2
  %10 = getelementptr inbounds nuw i8, ptr %0, i64 32
  %11 = getelementptr inbounds nuw i8, ptr %0, i64 48
  br label %12

12:                                               ; preds = %.lr.ph, %31
  %13 = phi ptr [ %7, %.lr.ph ], [ %39, %31 ]
  %.033 = phi ptr [ %5, %.lr.ph ], [ %37, %31 ]
  %.02632 = phi i32 [ 0, %.lr.ph ], [ %38, %31 ]
  %14 = load ptr, ptr %10, align 8
  %15 = icmp eq ptr %1, %14
  br i1 %15, label %31, label %16

16:                                               ; preds = %12
  %17 = getelementptr inbounds nuw i8, ptr %13, i64 16
  %18 = load ptr, ptr %17, align 8
  %19 = getelementptr i8, ptr %18, i64 8
  %.val = load ptr, ptr %19, align 8
  %20 = getelementptr i8, ptr %13, i64 108
  %.val29 = load i32, ptr %20, align 4
  %21 = add nsw i32 %.val29, %.02632
  %22 = sext i32 %21 to i64
  %23 = getelementptr inbounds ptr, ptr %.val, i64 %22
  %24 = load ptr, ptr %23, align 8
  %25 = load ptr, ptr %11, align 8
  %26 = getelementptr i8, ptr %24, i64 36
  %.val27 = load i32, ptr %26, align 4
  %27 = getelementptr i8, ptr %25, i64 8
  %.val28 = load ptr, ptr %27, align 8
  %28 = sext i32 %.val27 to i64
  %29 = getelementptr inbounds i32, ptr %.val28, i64 %28
  %30 = load i32, ptr %29, align 4
  br label %31

31:                                               ; preds = %12, %16
  %32 = phi i32 [ %30, %16 ], [ %.02632, %12 ]
  %33 = tail call ptr @Cudd_bddIthVar(ptr noundef %1, i32 noundef %32) #12
  %34 = ptrtoint ptr %33 to i64
  %35 = xor i64 %34, 1
  %36 = inttoptr i64 %35 to ptr
  %37 = tail call ptr @Cudd_bddAnd(ptr noundef %1, ptr noundef %.033, ptr noundef %36) #12
  tail call void @Cudd_Ref(ptr noundef %37) #12
  tail call void @Cudd_RecursiveDeref(ptr noundef %1, ptr noundef %.033) #12
  %38 = add nuw nsw i32 %.02632, 1
  %39 = load ptr, ptr %6, align 8
  %40 = getelementptr i8, ptr %39, i64 104
  %.val30 = load i32, ptr %40, align 8
  %41 = icmp slt i32 %38, %.val30
  br i1 %41, label %12, label %.critedge, !llvm.loop !19

.critedge:                                        ; preds = %31, %2
  %.0.lcssa = phi ptr [ %5, %2 ], [ %37, %31 ]
  tail call void @Cudd_Deref(ptr noundef %.0.lcssa) #12
  store i64 %4, ptr %3, align 8
  ret ptr %.0.lcssa
}